; Function Attrs: nofree norecurse nosync nounwind memory(read, argmem: readwrite, inaccessiblemem: none) uwtable
define dso_local ptr @vu_gpa_to_va(ptr noundef readonly captures(none) %0, ptr noundef captures(none) %1, i64 noundef %2) local_unnamed_addr #1 {
  %4 = load i64, ptr %1, align 8
  %5 = icmp eq i64 %4, 0
  br i1 %5, label %vu_gpa_to_mem_region.exit.thread, label %6

6:                                                ; preds = %3
  %7 = getelementptr inbounds nuw i8, ptr %0, i64 4
  %8 = load i32, ptr %7, align 4
  %9 = add i32 %8, -1
  %.not37.i = icmp slt i32 %9, 0
  br i1 %.not37.i, label %vu_gpa_to_mem_region.exit.thread, label %.lr.ph.i

.lr.ph.i:                                         ; preds = %6
  %10 = getelementptr inbounds nuw i8, ptr %0, i64 8
  %11 = load ptr, ptr %10, align 8
  br label %12

12:                                               ; preds = %._crit_edge.i, %.lr.ph.i
  %.02339.i = phi i32 [ 0, %.lr.ph.i ], [ %spec.select.i, %._crit_edge.i ]
  %.02638.i = phi i32 [ %9, %.lr.ph.i ], [ %.228.i, %._crit_edge.i ]
  %13 = sub i32 %.02638.i, %.02339.i
  %14 = sdiv i32 %13, 2
  %15 = add i32 %14, %.02339.i
  %16 = zext i32 %15 to i64
  %17 = getelementptr inbounds nuw %struct.VuDevRegion, ptr %11, i64 %16
  %18 = load i64, ptr %17, align 8
  %.not31.i = icmp uge i64 %2, %18
  %.phi.trans.insert.i = getelementptr inbounds nuw i8, ptr %17, i64 8
  %.pre.i = load i64, ptr %.phi.trans.insert.i, align 8
  %.pre42.i = add i64 %.pre.i, %18
  %19 = icmp ult i64 %2, %.pre42.i
  %or.cond.i = select i1 %.not31.i, i1 %19, i1 false
  br i1 %or.cond.i, label %vu_gpa_to_mem_region.exit, label %._crit_edge.i

._crit_edge.i:                                    ; preds = %12
  %20 = add i32 %15, 1
  %spec.select.i = select i1 %19, i32 %.02339.i, i32 %20
  %21 = add i32 %15, -1
  %.228.i = select i1 %.not31.i, i32 %.02638.i, i32 %21
  %.not.i = icmp sgt i32 %spec.select.i, %.228.i
  br i1 %.not.i, label %vu_gpa_to_mem_region.exit.thread, label %12

vu_gpa_to_mem_region.exit:                        ; preds = %12
  %22 = add i64 %4, %2
  %23 = icmp ugt i64 %22, %.pre42.i
  br i1 %23, label %24, label %26

24:                                               ; preds = %vu_gpa_to_mem_region.exit
  %25 = sub i64 %.pre42.i, %2
  store i64 %25, ptr %1, align 8
  %.pre = load i64, ptr %17, align 8
  br label %26

26:                                               ; preds = %24, %vu_gpa_to_mem_region.exit
  %27 = phi i64 [ %.pre, %24 ], [ %18, %vu_gpa_to_mem_region.exit ]
  %28 = inttoptr i64 %2 to ptr
  %29 = sub i64 0, %27
  %30 = getelementptr inbounds i8, ptr %28, i64 %29
  %31 = getelementptr inbounds nuw i8, ptr %17, i64 32
  %32 = load i64, ptr %31, align 8
  %33 = getelementptr inbounds nuw i8, ptr %30, i64 %32
  %34 = getelementptr inbounds nuw i8, ptr %17, i64 24
  %35 = load i64, ptr %34, align 8
  %36 = getelementptr inbounds nuw i8, ptr %33, i64 %35
  br label %vu_gpa_to_mem_region.exit.thread

vu_gpa_to_mem_region.exit.thread:                 ; preds = %._crit_edge.i, %6, %3, %26
  %.0 = phi ptr [ %36, %26 ], [ null, %3 ], [ null, %6 ], [ null, %._crit_edge.i ]
  ret ptr %.0
}